; Function Attrs: nounwind sspstrong uwtable
define internal noundef i64 @pkey_ctx_apply_options_i(i64 noundef %0, i64 noundef %1, i32 %2, ptr readnone captures(none) %3, i64 %4) #0 {
  %6 = alloca i64, align 8
  %7 = alloca i64, align 8
  call void @llvm.lifetime.start.p0(i64 8, ptr nonnull %6) #8
  %8 = tail call i64 @rb_ary_entry(i64 noundef %0, i64 noundef 0) #11
  store i64 %8, ptr %6, align 8, !tbaa !10
  call void @llvm.lifetime.start.p0(i64 8, ptr nonnull %7) #8
  %9 = tail call i64 @rb_ary_entry(i64 noundef %0, i64 noundef 1) #11
  %10 = inttoptr i64 %1 to ptr
  %11 = and i64 %8, 255
  %12 = icmp eq i64 %11, 12
  br i1 %12, label %RB_SYMBOL_P.exit.thread, label %13

13:                                               ; preds = %5
  %14 = icmp eq i64 %8, 0
  %15 = and i64 %8, 7
  %16 = icmp ne i64 %15, 0
  %17 = or i1 %14, %16
  br i1 %17, label %RB_SYMBOL_P.exit.thread3, label %RB_SYMBOL_P.exit

RB_SYMBOL_P.exit:                                 ; preds = %13
  %18 = inttoptr i64 %8 to ptr
  %19 = load i64, ptr %18, align 8, !tbaa !28
  %20 = and i64 %19, 31
  %21 = icmp eq i64 %20, 20
  br i1 %21, label %RB_SYMBOL_P.exit.thread, label %RB_SYMBOL_P.exit.thread3

RB_SYMBOL_P.exit.thread:                          ; preds = %5, %RB_SYMBOL_P.exit
  %22 = tail call i64 @rb_sym2str(i64 noundef %8) #8
  store i64 %22, ptr %6, align 8, !tbaa !10
  br label %RB_SYMBOL_P.exit.thread3

RB_SYMBOL_P.exit.thread3:                         ; preds = %13, %RB_SYMBOL_P.exit.thread, %RB_SYMBOL_P.exit
  %23 = tail call i64 @rb_String(i64 noundef %9) #8
  store i64 %23, ptr %7, align 8, !tbaa !10
  %24 = call ptr @rb_string_value_cstr(ptr noundef nonnull %6) #8
  %25 = call ptr @rb_string_value_cstr(ptr noundef nonnull %7) #8
  %26 = call i32 @EVP_PKEY_CTX_ctrl_str(ptr noundef %10, ptr noundef %24, ptr noundef %25) #8
  %27 = icmp slt i32 %26, 1
  br i1 %27, label %28, label %32

28:                                               ; preds = %RB_SYMBOL_P.exit.thread3
  %29 = load i64, ptr @ePKeyError, align 8, !tbaa !10
  %30 = load i64, ptr %6, align 8, !tbaa !10
  %31 = load i64, ptr %7, align 8, !tbaa !10
  call void (i64, ptr, ...) @ossl_raise(i64 noundef %29, ptr noundef nonnull @.str.50, i64 noundef %30, i64 noundef %31) #9
  unreachable

32:                                               ; preds = %RB_SYMBOL_P.exit.thread3
  call void @llvm.lifetime.end.p0(i64 8, ptr nonnull %7) #8
  call void @llvm.lifetime.end.p0(i64 8, ptr nonnull %6) #8
  ret i64 4
}